; ModuleID = '5/1074.c'
source_filename = "5/1074.c"
target datalayout = "e-m:e-p270:32:32-p271:32:32-p272:64:64-i64:64-f80:128-n8:16:32:64-S128"
target triple = "x86_64-pc-linux-gnu"

@.str = private unnamed_addr constant [4 x i8] c"%lf\00", align 1
@.str.1 = private unnamed_addr constant [3 x i8] c"%s\00", align 1
@.str.2 = private unnamed_addr constant [6 x i8] c"error\00", align 1
@.str.3 = private unnamed_addr constant [4 x i8] c"yes\00", align 1
@.str.4 = private unnamed_addr constant [3 x i8] c"no\00", align 1

; Function Attrs: noinline nounwind uwtable
define dso_local i32 @main() #0 {
  %1 = alloca i32, align 4
  %2 = alloca i32, align 4
  %3 = alloca [3 x [501 x i8]], align 16
  %4 = alloca double, align 8
  %5 = alloca double, align 8
  %6 = alloca double, align 8
  %7 = alloca double, align 8
  %8 = alloca double, align 8
  %9 = alloca double, align 8
  store i32 0, i32* %1, align 4
  store double 0.000000e+00, double* %9, align 8
  %10 = call i32 (i8*, ...) @__isoc99_scanf(i8* getelementptr inbounds ([4 x i8], [4 x i8]* @.str, i64 0, i64 0), double* %6)
  %11 = getelementptr inbounds [3 x [501 x i8]], [3 x [501 x i8]]* %3, i64 0, i64 1
  %12 = call i32 (i8*, ...) @__isoc99_scanf(i8* getelementptr inbounds ([3 x i8], [3 x i8]* @.str.1, i64 0, i64 0), [501 x i8]* %11)
  %13 = getelementptr inbounds [3 x [501 x i8]], [3 x [501 x i8]]* %3, i64 0, i64 2
  %14 = call i32 (i8*, ...) @__isoc99_scanf(i8* getelementptr inbounds ([3 x i8], [3 x i8]* @.str.1, i64 0, i64 0), [501 x i8]* %13)
  %15 = getelementptr inbounds [3 x [501 x i8]], [3 x [501 x i8]]* %3, i64 0, i64 1
  %16 = getelementptr inbounds [501 x i8], [501 x i8]* %15, i64 0, i64 0
  %17 = call i64 @strlen(i8* %16) #3
  %18 = uitofp i64 %17 to double
  store double %18, double* %4, align 8
  %19 = getelementptr inbounds [3 x [501 x i8]], [3 x [501 x i8]]* %3, i64 0, i64 2
  %20 = getelementptr inbounds [501 x i8], [501 x i8]* %19, i64 0, i64 0
  %21 = call i64 @strlen(i8* %20) #3
  %22 = uitofp i64 %21 to double
  store double %22, double* %5, align 8
  store i32 0, i32* %2, align 4
  br label %23

23:                                               ; preds = %96, %0
  %24 = load i32, i32* %2, align 4
  %25 = sitofp i32 %24 to double
  %26 = load double, double* %4, align 8
  %27 = fcmp olt double %25, %26
  br i1 %27, label %28, label %99

28:                                               ; preds = %23
  %29 = getelementptr inbounds [3 x [501 x i8]], [3 x [501 x i8]]* %3, i64 0, i64 1
  %30 = load i32, i32* %2, align 4
  %31 = sext i32 %30 to i64
  %32 = getelementptr inbounds [501 x i8], [501 x i8]* %29, i64 0, i64 %31
  %33 = load i8, i8* %32, align 1
  %34 = sext i8 %33 to i32
  %35 = icmp ne i32 %34, 65
  br i1 %35, label %36, label %60

36:                                               ; preds = %28
  %37 = getelementptr inbounds [3 x [501 x i8]], [3 x [501 x i8]]* %3, i64 0, i64 1
  %38 = load i32, i32* %2, align 4
  %39 = sext i32 %38 to i64
  %40 = getelementptr inbounds [501 x i8], [501 x i8]* %37, i64 0, i64 %39
  %41 = load i8, i8* %40, align 1
  %42 = sext i8 %41 to i32
  %43 = icmp ne i32 %42, 71
  br i1 %43, label %44, label %60

44:                                               ; preds = %36
  %45 = getelementptr inbounds [3 x [501 x i8]], [3 x [501 x i8]]* %3, i64 0, i64 1
  %46 = load i32, i32* %2, align 4
  %47 = sext i32 %46 to i64
  %48 = getelementptr inbounds [501 x i8], [501 x i8]* %45, i64 0, i64 %47
  %49 = load i8, i8* %48, align 1
  %50 = sext i8 %49 to i32
  %51 = icmp ne i32 %50, 67
  br i1 %51, label %52, label %60

52:                                               ; preds = %44
  %53 = getelementptr inbounds [3 x [501 x i8]], [3 x [501 x i8]]* %3, i64 0, i64 1
  %54 = load i32, i32* %2, align 4
  %55 = sext i32 %54 to i64
  %56 = getelementptr inbounds [501 x i8], [501 x i8]* %53, i64 0, i64 %55
  %57 = load i8, i8* %56, align 1
  %58 = sext i8 %57 to i32
  %59 = icmp ne i32 %58, 84
  br i1 %59, label %92, label %60

60:                                               ; preds = %52, %44, %36, %28
  %61 = getelementptr inbounds [3 x [501 x i8]], [3 x [501 x i8]]* %3, i64 0, i64 2
  %62 = load i32, i32* %2, align 4
  %63 = sext i32 %62 to i64
  %64 = getelementptr inbounds [501 x i8], [501 x i8]* %61, i64 0, i64 %63
  %65 = load i8, i8* %64, align 1
  %66 = sext i8 %65 to i32
  %67 = icmp ne i32 %66, 65
  br i1 %67, label %68, label %95

68:                                               ; preds = %60
  %69 = getelementptr inbounds [3 x [501 x i8]], [3 x [501 x i8]]* %3, i64 0, i64 2
  %70 = load i32, i32* %2, align 4
  %71 = sext i32 %70 to i64
  %72 = getelementptr inbounds [501 x i8], [501 x i8]* %69, i64 0, i64 %71
  %73 = load i8, i8* %72, align 1
  %74 = sext i8 %73 to i32
  %75 = icmp ne i32 %74, 71
  br i1 %75, label %76, label %95

76:                                               ; preds = %68
  %77 = getelementptr inbounds [3 x [501 x i8]], [3 x [501 x i8]]* %3, i64 0, i64 2
  %78 = load i32, i32* %2, align 4
  %79 = sext i32 %78 to i64
  %80 = getelementptr inbounds [501 x i8], [501 x i8]* %77, i64 0, i64 %79
  %81 = load i8, i8* %80, align 1
  %82 = sext i8 %81 to i32
  %83 = icmp ne i32 %82, 67
  br i1 %83, label %84, label %95

84:                                               ; preds = %76
  %85 = getelementptr inbounds [3 x [501 x i8]], [3 x [501 x i8]]* %3, i64 0, i64 2
  %86 = load i32, i32* %2, align 4
  %87 = sext i32 %86 to i64
  %88 = getelementptr inbounds [501 x i8], [501 x i8]* %85, i64 0, i64 %87
  %89 = load i8, i8* %88, align 1
  %90 = sext i8 %89 to i32
  %91 = icmp ne i32 %90, 84
  br i1 %91, label %92, label %95

92:                                               ; preds = %84, %52
  %93 = load double, double* %9, align 8
  %94 = fadd double %93, 1.000000e+00
  store double %94, double* %9, align 8
  br label %95

95:                                               ; preds = %92, %84, %76, %68, %60
  br label %96

96:                                               ; preds = %95
  %97 = load i32, i32* %2, align 4
  %98 = add nsw i32 %97, 1
  store i32 %98, i32* %2, align 4
  br label %23

99:                                               ; preds = %23
  %100 = load double, double* %5, align 8
  %101 = load double, double* %4, align 8
  %102 = fcmp une double %100, %101
  br i1 %102, label %106, label %103

103:                                              ; preds = %99
  %104 = load double, double* %9, align 8
  %105 = fcmp ogt double %104, 0.000000e+00
  br i1 %105, label %106, label %108

106:                                              ; preds = %103, %99
  %107 = call i32 (i8*, ...) @printf(i8* getelementptr inbounds ([6 x i8], [6 x i8]* @.str.2, i64 0, i64 0))
  br label %147

108:                                              ; preds = %103
  store i32 0, i32* %2, align 4
  br label %109

109:                                              ; preds = %132, %108
  %110 = load i32, i32* %2, align 4
  %111 = sitofp i32 %110 to double
  %112 = load double, double* %4, align 8
  %113 = fcmp olt double %111, %112
  br i1 %113, label %114, label %135

114:                                              ; preds = %109
  %115 = getelementptr inbounds [3 x [501 x i8]], [3 x [501 x i8]]* %3, i64 0, i64 1
  %116 = load i32, i32* %2, align 4
  %117 = sext i32 %116 to i64
  %118 = getelementptr inbounds [501 x i8], [501 x i8]* %115, i64 0, i64 %117
  %119 = load i8, i8* %118, align 1
  %120 = sext i8 %119 to i32
  %121 = getelementptr inbounds [3 x [501 x i8]], [3 x [501 x i8]]* %3, i64 0, i64 2
  %122 = load i32, i32* %2, align 4
  %123 = sext i32 %122 to i64
  %124 = getelementptr inbounds [501 x i8], [501 x i8]* %121, i64 0, i64 %123
  %125 = load i8, i8* %124, align 1
  %126 = sext i8 %125 to i32
  %127 = icmp eq i32 %120, %126
  br i1 %127, label %128, label %131

128:                                              ; preds = %114
  %129 = load double, double* %7, align 8
  %130 = fadd double %129, 1.000000e+00
  store double %130, double* %7, align 8
  br label %131

131:                                              ; preds = %128, %114
  br label %132

132:                                              ; preds = %131
  %133 = load i32, i32* %2, align 4
  %134 = add nsw i32 %133, 1
  store i32 %134, i32* %2, align 4
  br label %109

135:                                              ; preds = %109
  %136 = load double, double* %7, align 8
  %137 = load double, double* %4, align 8
  %138 = fdiv double %136, %137
  store double %138, double* %8, align 8
  %139 = load double, double* %8, align 8
  %140 = load double, double* %6, align 8
  %141 = fcmp ogt double %139, %140
  br i1 %141, label %142, label %144

142:                                              ; preds = %135
  %143 = call i32 (i8*, ...) @printf(i8* getelementptr inbounds ([4 x i8], [4 x i8]* @.str.3, i64 0, i64 0))
  br label %146

144:                                              ; preds = %135
  %145 = call i32 (i8*, ...) @printf(i8* getelementptr inbounds ([3 x i8], [3 x i8]* @.str.4, i64 0, i64 0))
  br label %146

146:                                              ; preds = %144, %142
  br label %147

147:                                              ; preds = %146, %106
  ret i32 0
}

declare dso_local i32 @__isoc99_scanf(i8*, ...) #1

; Function Attrs: nounwind readonly
declare dso_local i64 @strlen(i8*) #2

declare dso_local i32 @printf(i8*, ...) #1


!llvm.module.flags = !{!0}
!llvm.ident = !{!1}

!0 = !{i32 1, !"wchar_size", i32 4}
!1 = !{!"clang version 10.0.0-4ubuntu1 "}
